target datalayout = "e-m:e-p270:32:32-p271:32:32-p272:64:64-i64:64-i128:128-f80:128-n8:16:32:64-S128"
target triple = "x86_64-pc-linux-gnu"

%"class.icu_77::UnicodeString" = type { %"class.icu_77::Replaceable", %"union.icu_77::UnicodeString::StackBufferOrFields" }
%"class.icu_77::Replaceable" = type { %"class.icu_77::UObject" }
%"class.icu_77::UObject" = type { ptr }
%"union.icu_77::UnicodeString::StackBufferOrFields" = type { %struct.anon.0, [32 x i8] }
%struct.anon.0 = type { i16, i32, i32, ptr }
%"class.icu_77::TimeZoneFormat" = type { %"class.icu_77::Format", %"class.icu_77::Locale", [4 x i8], ptr, ptr, %"class.icu_77::UnicodeString", [6 x %"class.icu_77::UnicodeString"], [10 x i32], %"class.icu_77::UnicodeString", i32, %"class.icu_77::UnicodeString", %"class.icu_77::UnicodeString", [6 x ptr], i8, ptr }
%"class.icu_77::Format" = type { %"class.icu_77::UObject", ptr, ptr }
%"class.icu_77::Locale" = type <{ %"class.icu_77::UObject", [12 x i8], [6 x i8], [4 x i8], [2 x i8], i32, [4 x i8], ptr, [157 x i8], [3 x i8], ptr, i8, [7 x i8] }>

; Function Attrs: mustprogress uwtable
define void @_ZNK6icu_7714TimeZoneFormat18appendOffsetDigitsERNS_13UnicodeStringEih(ptr noundef nonnull align 8 dereferenceable(1024) %0, ptr noundef nonnull align 8 dereferenceable(64) %1, i32 noundef %2, i8 noundef zeroext %3) #1 align 2 {
  %5 = alloca ptr, align 8
  %6 = alloca ptr, align 8
  %7 = alloca i32, align 4
  %8 = alloca i8, align 1
  %9 = alloca i32, align 4
  %10 = alloca i32, align 4
  store ptr %0, ptr %5, align 8, !tbaa !39
  store ptr %1, ptr %6, align 8, !tbaa !33
  store i32 %2, ptr %7, align 4, !tbaa !14
  store i8 %3, ptr %8, align 1, !tbaa !37
  %11 = load ptr, ptr %5, align 8
  call void @llvm.lifetime.start.p0(i64 4, ptr %9) #15
  %12 = load i32, ptr %7, align 4, !tbaa !14
  %13 = icmp sge i32 %12, 10
  %14 = select i1 %13, i32 2, i32 1
  store i32 %14, ptr %9, align 4, !tbaa !14
  call void @llvm.lifetime.start.p0(i64 4, ptr %10) #15
  store i32 0, ptr %10, align 4, !tbaa !14
  br label %15

15:                                               ; preds = %29, %4
  %16 = load i32, ptr %10, align 4, !tbaa !14
  %17 = load i8, ptr %8, align 1, !tbaa !37
  %18 = zext i8 %17 to i32
  %19 = load i32, ptr %9, align 4, !tbaa !14
  %20 = sub nsw i32 %18, %19
  %21 = icmp slt i32 %16, %20
  br i1 %21, label %23, label %22

22:                                               ; preds = %15
  call void @llvm.lifetime.end.p0(i64 4, ptr %10) #15
  br label %32

23:                                               ; preds = %15
  %24 = load ptr, ptr %6, align 8, !tbaa !33
  %25 = getelementptr inbounds nuw %"class.icu_77::TimeZoneFormat", ptr %11, i32 0, i32 7
  %26 = getelementptr inbounds [10 x i32], ptr %25, i64 0, i64 0
  %27 = load i32, ptr %26, align 8, !tbaa !14
  %28 = call noundef nonnull align 8 dereferenceable(64) ptr @_ZN6icu_7713UnicodeString6appendEi(ptr noundef nonnull align 8 dereferenceable(64) %24, i32 noundef %27)
  br label %29

29:                                               ; preds = %23
  %30 = load i32, ptr %10, align 4, !tbaa !14
  %31 = add nsw i32 %30, 1
  store i32 %31, ptr %10, align 4, !tbaa !14
  br label %15, !llvm.loop !150

32:                                               ; preds = %22
  %33 = load i32, ptr %9, align 4, !tbaa !14
  %34 = icmp eq i32 %33, 2
  br i1 %34, label %35, label %44

35:                                               ; preds = %32
  %36 = load ptr, ptr %6, align 8, !tbaa !33
  %37 = getelementptr inbounds nuw %"class.icu_77::TimeZoneFormat", ptr %11, i32 0, i32 7
  %38 = load i32, ptr %7, align 4, !tbaa !14
  %39 = sdiv i32 %38, 10
  %40 = sext i32 %39 to i64
  %41 = getelementptr inbounds [10 x i32], ptr %37, i64 0, i64 %40
  %42 = load i32, ptr %41, align 4, !tbaa !14
  %43 = call noundef nonnull align 8 dereferenceable(64) ptr @_ZN6icu_7713UnicodeString6appendEi(ptr noundef nonnull align 8 dereferenceable(64) %36, i32 noundef %42)
  br label %44

44:                                               ; preds = %35, %32
  %45 = load ptr, ptr %6, align 8, !tbaa !33
  %46 = getelementptr inbounds nuw %"class.icu_77::TimeZoneFormat", ptr %11, i32 0, i32 7
  %47 = load i32, ptr %7, align 4, !tbaa !14
  %48 = srem i32 %47, 10
  %49 = sext i32 %48 to i64
  %50 = getelementptr inbounds [10 x i32], ptr %46, i64 0, i64 %49
  %51 = load i32, ptr %50, align 4, !tbaa !14
  %52 = call noundef nonnull align 8 dereferenceable(64) ptr @_ZN6icu_7713UnicodeString6appendEi(ptr noundef nonnull align 8 dereferenceable(64) %45, i32 noundef %51)
  call void @llvm.lifetime.end.p0(i64 4, ptr %9) #15
  ret void
}