; Function Attrs: mustprogress uwtable
define void @_ZNK6icu_7714TimeZoneFormat18appendOffsetDigitsERNS_13UnicodeStringEih(ptr noundef nonnull readonly align 8 captures(none) dereferenceable(1024) %0, ptr noundef nonnull align 8 dereferenceable(64) %1, i32 noundef %2, i8 noundef zeroext %3) local_unnamed_addr #1 align 2 {
  %5 = icmp sgt i32 %2, 9
  %.neg = select i1 %5, i32 -2, i32 -1
  %6 = zext i8 %3 to i32
  %7 = add nsw i32 %.neg, %6
  %8 = icmp sgt i32 %7, 0
  br i1 %8, label %.lr.ph, label %._crit_edge

.lr.ph:                                           ; preds = %4
  %9 = getelementptr inbounds nuw i8, ptr %0, i64 720
  br label %10

._crit_edge:                                      ; preds = %10, %4
  br i1 %5, label %14, label %21

10:                                               ; preds = %.lr.ph, %10
  %.012 = phi i32 [ 0, %.lr.ph ], [ %13, %10 ]
  %11 = load i32, ptr %9, align 8, !tbaa !12
  %12 = tail call noundef nonnull align 8 dereferenceable(64) ptr @_ZN6icu_7713UnicodeString6appendEi(ptr noundef nonnull align 8 dereferenceable(64) %1, i32 noundef %11)
  %13 = add nuw nsw i32 %.012, 1
  %exitcond.not = icmp eq i32 %13, %7
  br i1 %exitcond.not, label %._crit_edge, label %10, !llvm.loop !93

14:                                               ; preds = %._crit_edge
  %15 = getelementptr inbounds nuw i8, ptr %0, i64 720
  %16 = udiv i32 %2, 10
  %17 = zext nneg i32 %16 to i64
  %18 = getelementptr inbounds nuw [10 x i32], ptr %15, i64 0, i64 %17
  %19 = load i32, ptr %18, align 4, !tbaa !12
  %20 = tail call noundef nonnull align 8 dereferenceable(64) ptr @_ZN6icu_7713UnicodeString6appendEi(ptr noundef nonnull align 8 dereferenceable(64) %1, i32 noundef %19)
  br label %21

21:                                               ; preds = %14, %._crit_edge
  %22 = getelementptr inbounds nuw i8, ptr %0, i64 720
  %23 = srem i32 %2, 10
  %24 = sext i32 %23 to i64
  %25 = getelementptr inbounds [10 x i32], ptr %22, i64 0, i64 %24
  %26 = load i32, ptr %25, align 4, !tbaa !12
  %27 = tail call noundef nonnull align 8 dereferenceable(64) ptr @_ZN6icu_7713UnicodeString6appendEi(ptr noundef nonnull align 8 dereferenceable(64) %1, i32 noundef %26)
  ret void
}